(dp0
S'engine'
p1
Vpdflatex
p2
sS'packages'
p3
c__builtin__
set
p4
((lp5
Vgraphicx
p6
aVinputenc
p7
aVxspace
p8
aValgpseudocode
p9
aValgorithm
p10
atp11
Rp12
sS'files_with_guttermarks'
p13
g4
((lp14
S'/Users/ppeterlo/workspace/gatb-tools/gatb-tools/tools/DiscoSNP/donot_release/manuscript/./discoSnppp_giga_science_add_file.tex'
p15
aS'discoSnppp_giga_science_add_file.tex'
p16
aS'/Users/ppeterlo/workspace/gatb-tools/gatb-tools/tools/DiscoSNP/donot_release/manuscript/discoSnppp_giga_science_add_file.tex'
p17
atp18
Rp19
sS'synctex'
p20
I01
s.