(dp0
S'engine'
p1
S'pdflatex'
p2
sS'synctex'
p3
I01
sS'packages'
p4
c__builtin__
set
p5
((lp6
S'graphicx'
p7
aS'xspace'
p8
aS'inputenc'
p9
atp10
Rp11
sS'files_with_guttermarks'
p12
g5
((lp13
S'discoSnp++_giga_science.tex'
p14
atp15
Rp16
s.