(dp0
S'engine'
p1
Vpdflatex
p2
sS'packages'
p3
c__builtin__
set
p4
((lp5
Vxcolor
p6
aVurl
p7
aVinputenc
p8
aVxspace
p9
aVcolor
p10
aVgraphicx
p11
atp12
Rp13
sS'files_with_guttermarks'
p14
g4
((lp15
S'discoSnppp_giga_science.tex'
p16
aS'/Users/ppeterlo/workspace/gatb-tools/gatb-tools/tools/DiscoSNP/donot_release/manuscript/./discoSnppp_giga_science.tex'
p17
aS'/Users/ppeterlo/workspace/gatb-tools/gatb-tools/tools/DiscoSNP/donot_release/manuscript/discoSnppp_giga_science.tex'
p18
atp19
Rp20
sS'synctex'
p21
I01
s.