(dp0
S'engine'
p1
Vpdflatex
p2
sS'packages'
p3
c__builtin__
set
p4
((lp5
Valgorithm
p6
aVamsmath
p7
aVgraphicx
p8
aVxspace
p9
aValgpseudocode
p10
aVinputenc
p11
atp12
Rp13
sS'files_with_guttermarks'
p14
g4
((lp15
S'/Users/ppeterlo/workspace/gatb-tools/gatb-tools/tools/DiscoSNP/donot_release/manuscript/./discoSnppp_giga_science_add_file.tex'
p16
aS'/Users/ppeterlo/workspace/gatb-tools/gatb-tools/tools/DiscoSNP/donot_release/manuscript/discoSnppp_giga_science_add_file.tex'
p17
aV/opt/local/etc/texmf/tex/latex/algorithm2e/algorithm2e.sty
p18
aS'discoSnppp_giga_science_add_file.tex'
p19
atp20
Rp21
sS'synctex'
p22
I01
s.